(dp0
I0
(dp1
S'salary'
p2
F365788.0
sS'to_messages'
p3
F807.0
sS'total_payments'
p4
F1061827.0
sS'bonus'
p5
F600000.0
sS'poi_recieved_ratio'
p6
F4.708798017348203
sS'total_stock_value'
p7
F585062.0
sS'expenses'
p8
F94299.0
sS'exercised_stock_options'
p9
F0.0
sS'from_messages'
p10
F29.0
sS'other'
p11
F1740.0
sS'from_this_person_to_poi'
p12
F1.0
sS'poi'
p13
I00
sS'shared_receipt_with_poi'
p14
F702.0
sS'restricted_stock'
p15
F585062.0
sS'from_poi_to_this_person'
p16
F38.0
sS'poi_send_ratio'
p17
F3.4482758620689653
sS'poi_msg_ratio'
p18
F4.6650717703349285
ssI1
(dp19
g2
F267102.0
sg3
F0.0
sg4
F5634343.0
sg5
F1200000.0
sg6
F0.0
sg7
F10623258.0
sg8
F11200.0
sg9
F6680544.0
sg10
F0.0
sg11
F2660303.0
sg12
F0.0
sg13
I00
sg14
F0.0
sg15
F3942714.0
sg16
F0.0
sg17
F0.0
sg18
F0.0
ssI2
(dp20
g2
F170941.0
sg3
F0.0
sg4
F211725.0
sg5
F350000.0
sg6
F0.0
sg7
F6678735.0
sg8
F78552.0
sg9
F4890344.0
sg10
F0.0
sg11
F12961.0
sg12
F0.0
sg13
I00
sg14
F0.0
sg15
F1788391.0
sg16
F0.0
sg17
F0.0
sg18
F0.0
ssI3
(dp21
g2
F0.0
sg3
F764.0
sg4
F0.0
sg5
F0.0
sg6
F1.3089005235602094
sg7
F1038185.0
sg8
F0.0
sg9
F651850.0
sg10
F12.0
sg11
F0.0
sg12
F0.0
sg13
I00
sg14
F58.0
sg15
F386335.0
sg16
F10.0
sg17
F0.0
sg18
F1.2886597938144329
ssI4
(dp22
g2
F243293.0
sg3
F1045.0
sg4
F288682.0
sg5
F1500000.0
sg6
F3.062200956937799
sg7
F6391065.0
sg8
F34039.0
sg9
F5538001.0
sg10
F32.0
sg11
F11350.0
sg12
F21.0
sg13
I01
sg14
F1035.0
sg15
F853064.0
sg16
F32.0
sg17
F65.625
sg18
F4.921077065923862
ssI5
(dp23
g2
F267093.0
sg3
F0.0
sg4
F628522.0
sg5
F325000.0
sg6
F0.0
sg7
F208510.0
sg8
F35018.0
sg9
F0.0
sg10
F0.0
sg11
F1411.0
sg12
F0.0
sg13
I00
sg14
F0.0
sg15
F208510.0
sg16
F0.0
sg17
F0.0
sg18
F0.0
ssI6
(dp24
g2
F0.0
sg3
F232.0
sg4
F1848227.0
sg5
F0.0
sg6
F0.0
sg7
F955873.0
sg8
F0.0
sg9
F493489.0
sg10
F28.0
sg11
F0.0
sg12
F0.0
sg13
I00
sg14
F22.0
sg15
F462384.0
sg16
F0.0
sg17
F0.0
sg18
F0.0
ssI7
(dp25
g2
F370448.0
sg3
F2355.0
sg4
F4099771.0
sg5
F2600000.0
sg6
F2.4628450106157116
sg7
F1662855.0
sg8
F137108.0
sg9
F1104054.0
sg10
F48.0
sg11
F297353.0
sg12
F26.0
sg13
I00
sg14
F2228.0
sg15
F558801.0
sg16
F58.0
sg17
F54.166666666666664
sg18
F3.495630461922597
ssI8
(dp26
g2
F0.0
sg3
F2350.0
sg4
F3131860.0
sg5
F0.0
sg6
F1.872340425531915
sg7
F7256648.0
sg8
F0.0
sg9
F5210569.0
sg10
F1073.0
sg11
F0.0
sg12
F15.0
sg13
I00
sg14
F1074.0
sg15
F2046079.0
sg16
F44.0
sg17
F1.3979496738117427
sg18
F1.7236342389716621
ssI9
(dp27
g2
F197091.0
sg3
F1238.0
sg4
F1737629.0
sg5
F400000.0
sg6
F4.92730210016155
sg7
F880290.0
sg8
F43057.0
sg9
F880290.0
sg10
F222.0
sg11
F778.0
sg12
F48.0
sg13
I00
sg14
F742.0
sg15
F409554.0
sg16
F61.0
sg17
F21.62162162162162
sg18
F7.465753424657534
ssI10
(dp28
g2
F130724.0
sg3
F128.0
sg4
F3100224.0
sg5
F0.0
sg6
F7.8125
sg7
F2282768.0
sg8
F4994.0
sg9
F2282768.0
sg10
F17.0
sg11
F0.0
sg12
F17.0
sg13
I00
sg14
F119.0
sg15
F0.0
sg16
F10.0
sg17
F100.0
sg18
F18.620689655172416
ssI11
(dp29
g2
F288589.0
sg3
F111.0
sg4
F1130461.0
sg5
F788750.0
sg6
F10.81081081081081
sg7
F0.0
sg8
F53122.0
sg9
F0.0
sg10
F18.0
sg11
F0.0
sg12
F0.0
sg13
I00
sg14
F41.0
sg15
F0.0
sg16
F12.0
sg17
F0.0
sg18
F9.30232558139535
ssI12
(dp30
g2
F248546.0
sg3
F2475.0
sg4
F2014835.0
sg5
F850000.0
sg6
F1.0101010101010102
sg7
F954354.0
sg8
F84208.0
sg9
F765313.0
sg10
F14.0
sg11
F272.0
sg12
F2.0
sg13
I00
sg14
F2326.0
sg15
F189041.0
sg16
F25.0
sg17
F14.285714285714285
sg18
F1.0847730012053034
ssI13
(dp31
g2
F257486.0
sg3
F2647.0
sg4
F1545059.0
sg5
F700000.0
sg6
F1.3978088401964488
sg7
F698920.0
sg8
F0.0
sg9
F0.0
sg10
F38.0
sg11
F111122.0
sg12
F13.0
sg13
I00
sg14
F2565.0
sg15
F698920.0
sg16
F37.0
sg17
F34.21052631578947
sg18
F1.86219739292365
ssI14
(dp32
g2
F0.0
sg3
F169.0
sg4
F966522.0
sg5
F0.0
sg6
F0.0
sg7
F2218275.0
sg8
F0.0
sg9
F2218275.0
sg10
F12.0
sg11
F0.0
sg12
F0.0
sg13
I00
sg14
F23.0
sg15
F0.0
sg16
F0.0
sg17
F0.0
sg18
F0.0
ssI15
(dp33
g2
F0.0
sg3
F0.0
sg4
F0.0
sg5
F0.0
sg6
F0.0
sg7
F372205.0
sg8
F0.0
sg9
F372205.0
sg10
F0.0
sg11
F0.0
sg12
F0.0
sg13
I00
sg14
F0.0
sg15
F153686.0
sg16
F0.0
sg17
F0.0
sg18
F0.0
ssI16
(dp34
g2
F288542.0
sg3
F1758.0
sg4
F1490344.0
sg5
F1200000.0
sg6
F13.651877133105803
sg7
F698242.0
sg8
F16514.0
sg9
F0.0
sg10
F40.0
sg11
F101740.0
sg12
F11.0
sg13
I01
sg14
F1132.0
sg15
F698242.0
sg16
F240.0
sg17
F27.500000000000004
sg18
F13.959955506117907
ssI17
(dp35
g2
F251654.0
sg3
F136.0
sg4
F3202070.0
sg5
F1100000.0
sg6
F8.823529411764707
sg7
F1416848.0
sg8
F0.0
sg9
F1056320.0
sg10
F16.0
sg11
F947.0
sg12
F0.0
sg13
I00
sg14
F114.0
sg15
F360528.0
sg16
F12.0
sg17
F0.0
sg18
F7.894736842105263
ssI18
(dp36
g2
F288558.0
sg3
F258.0
sg4
F551174.0
sg5
F250000.0
sg6
F9.689922480620156
sg7
F725735.0
sg8
F10181.0
sg9
F185063.0
sg10
F56.0
sg11
F2435.0
sg12
F19.0
sg13
I00
sg14
F117.0
sg15
F540672.0
sg16
F25.0
sg17
F33.92857142857143
sg18
F14.012738853503185
ssI19
(dp37
g2
F63744.0
sg3
F0.0
sg4
F762135.0
sg5
F0.0
sg6
F0.0
sg7
F384930.0
sg8
F51870.0
sg9
F0.0
sg10
F0.0
sg11
F401130.0
sg12
F0.0
sg13
I00
sg14
F0.0
sg15
F384930.0
sg16
F0.0
sg17
F0.0
sg18
F0.0
ssI20
(dp38
g2
F0.0
sg3
F0.0
sg4
F87410.0
sg5
F0.0
sg6
F0.0
sg7
F1030329.0
sg8
F33785.0
sg9
F1030329.0
sg10
F0.0
sg11
F0.0
sg12
F0.0
sg13
I00
sg14
F0.0
sg15
F0.0
sg16
F0.0
sg17
F0.0
sg18
F0.0
ssI21
(dp39
g2
F357091.0
sg3
F671.0
sg4
F1798780.0
sg5
F850000.0
sg6
F2.533532041728763
sg7
F5898997.0
sg8
F50936.0
sg9
F4346544.0
sg10
F146.0
sg11
F2.0
sg12
F0.0
sg13
I00
sg14
F215.0
sg15
F1552453.0
sg16
F17.0
sg17
F0.0
sg18
F2.08078335373317
ssI22
(dp40
g2
F271442.0
sg3
F8305.0
sg4
F3471141.0
sg5
F3100000.0
sg6
F3.0222757375075253
sg7
F547143.0
sg8
F5774.0
sg9
F81042.0
sg10
F1728.0
sg11
F93925.0
sg12
F194.0
sg13
I00
sg14
F3669.0
sg15
F466101.0
sg16
F251.0
sg17
F11.226851851851851
sg18
F4.435363301106349
ssI23
(dp41
g2
F0.0
sg3
F0.0
sg4
F0.0
sg5
F0.0
sg6
F0.0
sg7
F0.0
sg8
F0.0
sg9
F0.0
sg10
F0.0
sg11
F0.0
sg12
F0.0
sg13
I00
sg14
F0.0
sg15
F32460.0
sg16
F0.0
sg17
F0.0
sg18
F0.0
ssI24
(dp42
g2
F0.0
sg3
F0.0
sg4
F102500.0
sg5
F0.0
sg6
F0.0
sg7
F-44093.0
sg8
F0.0
sg9
F3285.0
sg10
F0.0
sg11
F0.0
sg12
F0.0
sg13
I00
sg14
F0.0
sg15
F0.0
sg16
F0.0
sg17
F0.0
sg18
F0.0
ssI25
(dp43
g2
F304110.0
sg3
F3221.0
sg4
F3038702.0
sg5
F2000000.0
sg6
F2.9183483390251475
sg7
F2072035.0
sg8
F178979.0
sg9
F1441898.0
sg10
F2681.0
sg11
F1191.0
sg12
F83.0
sg13
I00
sg14
F1730.0
sg15
F630137.0
sg16
F94.0
sg17
F3.0958597538232002
sg18
F2.9989833954591663
ssI26
(dp44
g2
F0.0
sg3
F0.0
sg4
F189583.0
sg5
F0.0
sg6
F0.0
sg7
F0.0
sg8
F0.0
sg9
F0.0
sg10
F0.0
sg11
F189583.0
sg12
F0.0
sg13
I00
sg14
F0.0
sg15
F0.0
sg16
F0.0
sg17
F0.0
sg18
F0.0
ssI27
(dp45
g2
F187922.0
sg3
F383.0
sg4
F618850.0
sg5
F250000.0
sg6
F1.0443864229765014
sg7
F659249.0
sg8
F59175.0
sg9
F0.0
sg10
F59.0
sg11
F427316.0
sg12
F0.0
sg13
I00
sg14
F233.0
sg15
F659249.0
sg16
F4.0
sg17
F0.0
sg18
F0.904977375565611
ssI28
(dp46
g2
F0.0
sg3
F0.0
sg4
F228656.0
sg5
F0.0
sg6
F0.0
sg7
F0.0
sg8
F228656.0
sg9
F0.0
sg10
F0.0
sg11
F0.0
sg12
F0.0
sg13
I00
sg14
F0.0
sg15
F0.0
sg16
F0.0
sg17
F0.0
sg18
F0.0
ssI29
(dp47
g2
F213625.0
sg3
F1607.0
sg4
F2047593.0
sg5
F1000000.0
sg6
F1.4312383322962041
sg7
F1843816.0
sg8
F38559.0
sg9
F1465734.0
sg10
F40.0
sg11
F425688.0
sg12
F8.0
sg13
I00
sg14
F1336.0
sg15
F378082.0
sg16
F23.0
sg17
F20.0
sg18
F1.8822100789313905
ssI30
(dp48
g2
F249201.0
sg3
F1328.0
sg4
F1099100.0
sg5
F700000.0
sg6
F2.635542168674699
sg7
F1918887.0
sg8
F33271.0
sg9
F1635238.0
sg10
F82.0
sg11
F1950.0
sg12
F48.0
sg13
I01
sg14
F1258.0
sg15
F283649.0
sg16
F35.0
sg17
F58.536585365853654
sg18
F5.886524822695035
ssI31
(dp49
g2
F0.0
sg3
F0.0
sg4
F0.0
sg5
F0.0
sg6
F0.0
sg7
F98718.0
sg8
F0.0
sg9
F98718.0
sg10
F0.0
sg11
F0.0
sg12
F0.0
sg13
I00
sg14
F0.0
sg15
F0.0
sg16
F0.0
sg17
F0.0
sg18
F0.0
ssI32
(dp50
g2
F231330.0
sg3
F7315.0
sg4
F969068.0
sg5
F700000.0
sg6
F1.9685577580314422
sg7
F126027.0
sg8
F37172.0
sg9
F0.0
sg10
F4343.0
sg11
F566.0
sg12
F386.0
sg13
I00
sg14
F2639.0
sg15
F126027.0
sg16
F144.0
sg17
F8.887865530739122
sg18
F4.546234345513811
ssI33
(dp51
g2
F0.0
sg3
F573.0
sg4
F475.0
sg5
F0.0
sg6
F0.6980802792321117
sg7
F2217299.0
sg8
F475.0
sg9
F0.0
sg10
F19.0
sg11
F0.0
sg12
F7.0
sg13
I00
sg14
F471.0
sg15
F2217299.0
sg16
F4.0
sg17
F36.84210526315789
sg18
F1.8581081081081081
ssI34
(dp52
g2
F182245.0
sg3
F0.0
sg4
F2692324.0
sg5
F200000.0
sg6
F0.0
sg7
F1008941.0
sg8
F21530.0
sg9
F601438.0
sg10
F0.0
sg11
F53775.0
sg12
F0.0
sg13
I00
sg14
F0.0
sg15
F407503.0
sg16
F0.0
sg17
F0.0
sg18
F0.0
ssI35
(dp53
g2
F0.0
sg3
F0.0
sg4
F148.0
sg5
F0.0
sg6
F0.0
sg7
F0.0
sg8
F148.0
sg9
F0.0
sg10
F0.0
sg11
F0.0
sg12
F0.0
sg13
I00
sg14
F0.0
sg15
F0.0
sg16
F0.0
sg17
F0.0
sg18
F0.0
ssI36
(dp54
g2
F211788.0
sg3
F1320.0
sg4
F2081796.0
sg5
F1700000.0
sg6
F3.0303030303030303
sg7
F441096.0
sg8
F98849.0
sg9
F0.0
sg10
F27.0
sg11
F1936.0
sg12
F1.0
sg13
I00
sg14
F900.0
sg15
F441096.0
sg16
F40.0
sg17
F3.7037037037037033
sg18
F3.0438010393466963
ssI37
(dp55
g2
F0.0
sg3
F0.0
sg4
F0.0
sg5
F0.0
sg6
F0.0
sg7
F189518.0
sg8
F0.0
sg9
F0.0
sg10
F0.0
sg11
F0.0
sg12
F0.0
sg13
I00
sg14
F0.0
sg15
F662086.0
sg16
F0.0
sg17
F0.0
sg18
F0.0
ssI38
(dp56
g2
F0.0
sg3
F952.0
sg4
F0.0
sg5
F0.0
sg6
F1.050420168067227
sg7
F850477.0
sg8
F0.0
sg9
F850477.0
sg10
F26.0
sg11
F0.0
sg12
F0.0
sg13
I00
sg14
F739.0
sg15
F0.0
sg16
F10.0
sg17
F0.0
sg18
F1.0224948875255624
ssI39
(dp57
g2
F0.0
sg3
F504.0
sg4
F7961.0
sg5
F0.0
sg6
F3.1746031746031744
sg7
F151418.0
sg8
F0.0
sg9
F0.0
sg10
F12.0
sg11
F0.0
sg12
F0.0
sg13
I00
sg14
F50.0
sg15
F151418.0
sg16
F16.0
sg17
F0.0
sg18
F3.10077519379845
ssI40
(dp58
g2
F0.0
sg3
F1433.0
sg4
F0.0
sg5
F0.0
sg6
F1.7445917655268668
sg7
F758931.0
sg8
F0.0
sg9
F664375.0
sg10
F215.0
sg11
F0.0
sg12
F2.0
sg13
I00
sg14
F508.0
sg15
F94556.0
sg16
F25.0
sg17
F0.9302325581395349
sg18
F1.6383495145631068
ssI41
(dp59
g2
F224305.0
sg3
F0.0
sg4
F2652612.0
sg5
F800000.0
sg6
F0.0
sg7
F985032.0
sg8
F118134.0
sg9
F0.0
sg10
F0.0
sg11
F907502.0
sg12
F0.0
sg13
I01
sg14
F0.0
sg15
F985032.0
sg16
F0.0
sg17
F0.0
sg18
F0.0
ssI42
(dp60
g2
F273746.0
sg3
F2822.0
sg4
F2664228.0
sg5
F1000000.0
sg6
F2.374202693125443
sg7
F360528.0
sg8
F0.0
sg9
F0.0
sg10
F63.0
sg11
F3083.0
sg12
F14.0
sg13
I00
sg14
F2672.0
sg15
F360528.0
sg16
F67.0
sg17
F22.22222222222222
sg18
F2.8076256499133447
ssI43
(dp61
g2
F339288.0
sg3
F7259.0
sg4
F10425757.0
sg5
F8000000.0
sg6
F7.273729163796666
sg7
F5167144.0
sg8
F49537.0
sg9
F4158995.0
sg10
F2585.0
sg11
F1552.0
sg12
F411.0
sg13
I00
sg14
F3962.0
sg15
F1008149.0
sg16
F528.0
sg17
F15.899419729206961
sg18
F9.538805363673305
ssI44
(dp62
g2
F216582.0
sg3
F0.0
sg4
F228474.0
sg5
F0.0
sg6
F0.0
sg7
F2493616.0
sg8
F11892.0
sg9
F1624396.0
sg10
F0.0
sg11
F0.0
sg12
F0.0
sg13
I00
sg14
F0.0
sg15
F869220.0
sg16
F0.0
sg17
F0.0
sg18
F0.0
ssI45
(dp63
g2
F210500.0
sg3
F0.0
sg4
F1204583.0
sg5
F425000.0
sg6
F0.0
sg7
F2027865.0
sg8
F52255.0
sg9
F2027865.0
sg10
F0.0
sg11
F1105.0
sg12
F0.0
sg13
I00
sg14
F0.0
sg15
F315068.0
sg16
F0.0
sg17
F0.0
sg18
F0.0
ssI46
(dp64
g2
F0.0
sg3
F0.0
sg4
F213071.0
sg5
F0.0
sg6
F0.0
sg7
F0.0
sg8
F103773.0
sg9
F0.0
sg10
F0.0
sg11
F0.0
sg12
F0.0
sg13
I00
sg14
F0.0
sg15
F0.0
sg16
F0.0
sg17
F0.0
sg18
F0.0
ssI47
(dp65
g2
F0.0
sg3
F653.0
sg4
F0.0
sg5
F0.0
sg6
F0.0
sg7
F0.0
sg8
F0.0
sg9
F0.0
sg10
F26.0
sg11
F0.0
sg12
F0.0
sg13
I00
sg14
F12.0
sg15
F0.0
sg16
F0.0
sg17
F0.0
sg18
F0.0
ssI48
(dp66
g2
F272880.0
sg3
F0.0
sg4
F2146973.0
sg5
F750000.0
sg6
F0.0
sg7
F877611.0
sg8
F0.0
sg9
F436515.0
sg10
F0.0
sg11
F819288.0
sg12
F0.0
sg13
I00
sg14
F0.0
sg15
F441096.0
sg16
F0.0
sg17
F0.0
sg18
F0.0
ssI49
(dp67
g2
F477.0
sg3
F566.0
sg4
F916197.0
sg5
F0.0
sg6
F6.890459363957597
sg7
F5243487.0
sg8
F56301.0
sg9
F4046157.0
sg10
F29.0
sg11
F864523.0
sg12
F0.0
sg13
I00
sg14
F465.0
sg15
F1757552.0
sg16
F39.0
sg17
F0.0
sg18
F6.5546218487394965
ssI50
(dp68
g2
F0.0
sg3
F0.0
sg4
F77492.0
sg5
F0.0
sg6
F0.0
sg7
F371750.0
sg8
F0.0
sg9
F371750.0
sg10
F0.0
sg11
F0.0
sg12
F0.0
sg13
I00
sg14
F0.0
sg15
F0.0
sg16
F0.0
sg17
F0.0
sg18
F0.0
ssI51
(dp69
g2
F269076.0
sg3
F15149.0
sg4
F1057548.0
sg5
F650000.0
sg6
F0.48848108786058486
sg7
F987001.0
sg8
F137767.0
sg9
F607837.0
sg10
F1215.0
sg11
F705.0
sg12
F65.0
sg13
I00
sg14
F4527.0
sg15
F379164.0
sg16
F74.0
sg17
F5.349794238683128
sg18
F0.849425568320704
ssI52
(dp70
g2
F428780.0
sg3
F3187.0
sg4
F4335388.0
sg5
F1500000.0
sg6
F0.8785691873235018
sg7
F3128982.0
sg8
F0.0
sg9
F1835558.0
sg10
F92.0
sg11
F1852186.0
sg12
F23.0
sg13
I00
sg14
F2103.0
sg15
F1293424.0
sg16
F28.0
sg17
F25.0
sg18
F1.555352241537054
ssI53
(dp71
g2
F211844.0
sg3
F225.0
sg4
F2003885.0
sg5
F200000.0
sg6
F5.777777777777778
sg7
F2493616.0
sg8
F22884.0
sg9
F1624396.0
sg10
F39.0
sg11
F1573324.0
sg12
F14.0
sg13
I01
sg14
F91.0
sg15
F869220.0
sg16
F13.0
sg17
F35.8974358974359
sg18
F10.227272727272728
ssI54
(dp72
g2
F0.0
sg3
F0.0
sg4
F87492.0
sg5
F0.0
sg6
F0.0
sg7
F412878.0
sg8
F0.0
sg9
F412878.0
sg10
F0.0
sg11
F0.0
sg12
F0.0
sg13
I00
sg14
F0.0
sg15
F0.0
sg16
F0.0
sg17
F0.0
sg18
F0.0
ssI55
(dp73
g2
F206121.0
sg3
F714.0
sg4
F1208649.0
sg5
F600000.0
sg6
F16.106442577030812
sg7
F159211.0
sg8
F41626.0
sg9
F17378.0
sg10
F74.0
sg11
F25553.0
sg12
F4.0
sg13
I00
sg14
F552.0
sg15
F141833.0
sg16
F115.0
sg17
F5.405405405405405
sg18
F15.101522842639595
ssI56
(dp74
g2
F174246.0
sg3
F0.0
sg4
F704896.0
sg5
F0.0
sg6
F0.0
sg7
F1034346.0
sg8
F116335.0
sg9
F0.0
sg10
F0.0
sg11
F465357.0
sg12
F0.0
sg13
I00
sg14
F0.0
sg15
F1034346.0
sg16
F0.0
sg17
F0.0
sg18
F0.0
ssI57
(dp75
g2
F510364.0
sg3
F6019.0
sg4
F4677574.0
sg5
F3000000.0
sg6
F3.090214321315833
sg7
F6079137.0
sg8
F57838.0
sg9
F3282960.0
sg10
F556.0
sg11
F301026.0
sg12
F24.0
sg13
I00
sg14
F3920.0
sg15
F2796177.0
sg16
F186.0
sg17
F4.316546762589928
sg18
F3.193916349809886
ssI58
(dp76
g2
F365038.0
sg3
F3329.0
sg4
F2101364.0
sg5
F1100000.0
sg6
F2.763592670471613
sg7
F3101279.0
sg8
F81364.0
sg9
F1623010.0
sg10
F2742.0
sg11
F540.0
sg12
F194.0
sg13
I00
sg14
F2189.0
sg15
F1478269.0
sg16
F92.0
sg17
F7.075127644055435
sg18
F4.710920770877944
ssI59
(dp77
g2
F0.0
sg3
F58.0
sg4
F0.0
sg5
F0.0
sg6
F0.0
sg7
F47304.0
sg8
F0.0
sg9
F0.0
sg10
F16.0
sg11
F0.0
sg12
F1.0
sg13
I00
sg14
F3.0
sg15
F47304.0
sg16
F0.0
sg17
F6.25
sg18
F1.3513513513513513
ssI60
(dp78
g2
F365163.0
sg3
F3093.0
sg4
F4747979.0
sg5
F3000000.0
sg6
F2.133850630455868
sg7
F3614261.0
sg8
F86174.0
sg9
F2291113.0
sg10
F3069.0
sg11
F1661.0
sg12
F609.0
sg13
I01
sg14
F2097.0
sg15
F1323148.0
sg16
F66.0
sg17
F19.843597262952102
sg18
F10.954235637779941
ssI61
(dp79
g2
F162779.0
sg3
F0.0
sg4
F999356.0
sg5
F100000.0
sg6
F0.0
sg7
F1362375.0
sg8
F0.0
sg9
F1362375.0
sg10
F0.0
sg11
F162.0
sg12
F0.0
sg13
I00
sg14
F0.0
sg15
F0.0
sg16
F0.0
sg17
F0.0
sg18
F0.0
ssI62
(dp80
g2
F0.0
sg3
F0.0
sg4
F0.0
sg5
F0.0
sg6
F0.0
sg7
F139130.0
sg8
F0.0
sg9
F139130.0
sg10
F0.0
sg11
F0.0
sg12
F0.0
sg13
I00
sg14
F0.0
sg15
F0.0
sg16
F0.0
sg17
F0.0
sg18
F0.0
ssI63
(dp81
g2
F236457.0
sg3
F0.0
sg4
F875889.0
sg5
F200000.0
sg6
F0.0
sg7
F3064208.0
sg8
F57727.0
sg9
F2549361.0
sg10
F0.0
sg11
F2630.0
sg12
F0.0
sg13
I00
sg14
F0.0
sg15
F514847.0
sg16
F0.0
sg17
F0.0
sg18
F0.0
ssI64
(dp82
g2
F0.0
sg3
F0.0
sg4
F2151.0
sg5
F0.0
sg6
F0.0
sg7
F0.0
sg8
F2151.0
sg9
F0.0
sg10
F0.0
sg11
F0.0
sg12
F0.0
sg13
I00
sg14
F0.0
sg15
F0.0
sg16
F0.0
sg17
F0.0
sg18
F0.0
ssI65
(dp83
g2
F1072321.0
sg3
F4273.0
sg4
F103559793.0
sg5
F7000000.0
sg6
F2.8785396676807866
sg7
F49110078.0
sg8
F99832.0
sg9
F34348384.0
sg10
F36.0
sg11
F10359729.0
sg12
F16.0
sg13
I01
sg14
F2411.0
sg15
F14761694.0
sg16
F123.0
sg17
F44.44444444444444
sg18
F3.225806451612903
ssI66
(dp84
g2
F261516.0
sg3
F0.0
sg4
F1271582.0
sg5
F750000.0
sg6
F0.0
sg7
F417619.0
sg8
F9410.0
sg9
F0.0
sg10
F0.0
sg11
F150656.0
sg12
F0.0
sg13
I00
sg14
F0.0
sg15
F417619.0
sg16
F0.0
sg17
F0.0
sg18
F0.0
ssI67
(dp85
g2
F329078.0
sg3
F1184.0
sg4
F1321557.0
sg5
F750000.0
sg6
F1.6891891891891893
sg7
F2606763.0
sg8
F63791.0
sg9
F1637034.0
sg10
F52.0
sg11
F972.0
sg12
F15.0
sg13
I00
sg14
F856.0
sg15
F969729.0
sg16
F20.0
sg17
F28.846153846153843
sg18
F2.8317152103559873
ssI68
(dp86
g2
F0.0
sg3
F894.0
sg4
F0.0
sg5
F0.0
sg6
F6.0402684563758395
sg7
F1691366.0
sg8
F0.0
sg9
F757301.0
sg10
F13.0
sg11
F0.0
sg12
F1.0
sg13
I00
sg14
F720.0
sg15
F934065.0
sg16
F54.0
sg17
F7.6923076923076925
sg18
F6.063947078280044
ssI69
(dp87
g2
F184899.0
sg3
F0.0
sg4
F807956.0
sg5
F325000.0
sg6
F0.0
sg7
F207940.0
sg8
F22344.0
sg9
F0.0
sg10
F0.0
sg11
F713.0
sg12
F0.0
sg13
I00
sg14
F0.0
sg15
F207940.0
sg16
F0.0
sg17
F0.0
sg18
F0.0
ssI70
(dp88
g2
F192008.0
sg3
F0.0
sg4
F900585.0
sg5
F509870.0
sg6
F0.0
sg7
F318607.0
sg8
F50080.0
sg9
F83237.0
sg10
F0.0
sg11
F76547.0
sg12
F0.0
sg13
I00
sg14
F0.0
sg15
F235370.0
sg16
F0.0
sg17
F0.0
sg18
F0.0
ssI71
(dp89
g2
F263413.0
sg3
F1744.0
sg4
F1318763.0
sg5
F900000.0
sg6
F2.981651376146789
sg7
F947861.0
sg8
F228763.0
sg9
F506765.0
sg10
F49.0
sg11
F51587.0
sg12
F0.0
sg13
I00
sg14
F1469.0
sg15
F441096.0
sg16
F52.0
sg17
F0.0
sg18
F2.9001673173452316
ssI72
(dp90
g2
F262663.0
sg3
F0.0
sg4
F1297461.0
sg5
F700000.0
sg6
F0.0
sg7
F668132.0
sg8
F48357.0
sg9
F187500.0
sg10
F0.0
sg11
F416441.0
sg12
F0.0
sg13
I00
sg14
F0.0
sg15
F480632.0
sg16
F0.0
sg17
F0.0
sg18
F0.0
ssI73
(dp91
g2
F0.0
sg3
F0.0
sg4
F0.0
sg5
F0.0
sg6
F0.0
sg7
F759557.0
sg8
F0.0
sg9
F759557.0
sg10
F0.0
sg11
F0.0
sg12
F0.0
sg13
I00
sg14
F0.0
sg15
F0.0
sg16
F0.0
sg17
F0.0
sg18
F0.0
ssI74
(dp92
g2
F0.0
sg3
F0.0
sg4
F0.0
sg5
F0.0
sg6
F0.0
sg7
F1945360.0
sg8
F0.0
sg9
F1753766.0
sg10
F0.0
sg11
F0.0
sg12
F0.0
sg13
I00
sg14
F0.0
sg15
F264013.0
sg16
F0.0
sg17
F0.0
sg18
F0.0
ssI75
(dp93
g2
F374125.0
sg3
F4009.0
sg4
F3859065.0
sg5
F1150000.0
sg6
F4.489897730107259
sg7
F803094.0
sg8
F76169.0
sg9
F608750.0
sg10
F1941.0
sg11
F52382.0
sg12
F61.0
sg13
I00
sg14
F1847.0
sg15
F524169.0
sg16
F180.0
sg17
F3.1427099433281813
sg18
F4.050420168067228
ssI76
(dp94
g2
F278601.0
sg3
F1858.0
sg4
F2669589.0
sg5
F1350000.0
sg6
F7.534983853606028
sg7
F252055.0
sg8
F65907.0
sg9
F0.0
sg10
F27.0
sg11
F1621.0
sg12
F15.0
sg13
I01
sg14
F1593.0
sg15
F252055.0
sg16
F140.0
sg17
F55.55555555555556
sg18
F8.222811671087534
ssI77
(dp95
g2
F0.0
sg3
F0.0
sg4
F0.0
sg5
F0.0
sg6
F0.0
sg7
F85641.0
sg8
F0.0
sg9
F9803.0
sg10
F0.0
sg11
F0.0
sg12
F0.0
sg13
I00
sg14
F0.0
sg15
F75838.0
sg16
F0.0
sg17
F0.0
sg18
F0.0
ssI78
(dp96
g2
F199157.0
sg3
F936.0
sg4
F1414857.0
sg5
F350000.0
sg6
F0.10683760683760685
sg7
F1621236.0
sg8
F23870.0
sg9
F664461.0
sg10
F16.0
sg11
F285414.0
sg12
F8.0
sg13
I00
sg14
F723.0
sg15
F956775.0
sg16
F1.0
sg17
F50.0
sg18
F0.9453781512605042
ssI79
(dp97
g2
F0.0
sg3
F672.0
sg4
F0.0
sg5
F0.0
sg6
F0.0
sg7
F221141.0
sg8
F0.0
sg9
F59539.0
sg10
F19.0
sg11
F0.0
sg12
F0.0
sg13
I00
sg14
F127.0
sg15
F161602.0
sg16
F0.0
sg17
F0.0
sg18
F0.0
ssI80
(dp98
g2
F96840.0
sg3
F1671.0
sg4
F111529.0
sg5
F0.0
sg6
F12.208258527827647
sg7
F7890324.0
sg8
F14689.0
sg9
F7509039.0
sg10
F221.0
sg11
F0.0
sg12
F49.0
sg13
I00
sg14
F1063.0
sg15
F381285.0
sg16
F204.0
sg17
F22.171945701357465
sg18
F13.372093023255813
ssI81
(dp99
g2
F80818.0
sg3
F0.0
sg4
F860136.0
sg5
F0.0
sg6
F0.0
sg7
F1599641.0
sg8
F0.0
sg9
F1599641.0
sg10
F0.0
sg11
F874.0
sg12
F0.0
sg13
I00
sg14
F0.0
sg15
F0.0
sg16
F0.0
sg17
F0.0
sg18
F0.0
ssI82
(dp100
g2
F213999.0
sg3
F7991.0
sg4
F5501630.0
sg5
F5249999.0
sg6
F2.85320986109373
sg7
F1110705.0
sg8
F17355.0
sg9
F953136.0
sg10
F484.0
sg11
F210698.0
sg12
F108.0
sg13
I01
sg14
F5521.0
sg15
F157569.0
sg16
F228.0
sg17
F22.31404958677686
sg18
F3.9646017699115044
ssI83
(dp101
g2
F210692.0
sg3
F904.0
sg4
F2093263.0
sg5
F750000.0
sg6
F11.725663716814159
sg7
F1640910.0
sg8
F25785.0
sg9
F1451869.0
sg10
F12.0
sg11
F1568.0
sg12
F3.0
sg13
I00
sg14
F599.0
sg15
F189041.0
sg16
F106.0
sg17
F25.0
sg18
F11.899563318777293
ssI84
(dp102
g2
F222093.0
sg3
F266.0
sg4
F911453.0
sg5
F0.0
sg6
F0.0
sg7
F4817796.0
sg8
F46145.0
sg9
F4452476.0
sg10
F41.0
sg11
F426629.0
sg12
F0.0
sg13
I00
sg14
F73.0
sg15
F365320.0
sg16
F0.0
sg17
F0.0
sg18
F0.0
ssI85
(dp103
g2
F440698.0
sg3
F0.0
sg4
F2424083.0
sg5
F1300000.0
sg6
F0.0
sg7
F1794412.0
sg8
F55921.0
sg9
F0.0
sg10
F0.0
sg11
F277464.0
sg12
F0.0
sg13
I01
sg14
F0.0
sg15
F1794412.0
sg16
F0.0
sg17
F0.0
sg18
F0.0
ssI86
(dp104
g2
F0.0
sg3
F57.0
sg4
F181755.0
sg5
F0.0
sg6
F0.0
sg7
F343434.0
sg8
F0.0
sg9
F343434.0
sg10
F13.0
sg11
F0.0
sg12
F0.0
sg13
I00
sg14
F2.0
sg15
F0.0
sg16
F0.0
sg17
F0.0
sg18
F0.0
ssI87
(dp105
g2
F240189.0
sg3
F2598.0
sg4
F1639297.0
sg5
F1250000.0
sg6
F7.659738260200154
sg7
F126027.0
sg8
F35818.0
sg9
F0.0
sg10
F144.0
sg11
F486.0
sg12
F25.0
sg13
I01
sg14
F2188.0
sg15
F126027.0
sg16
F199.0
sg17
F17.36111111111111
sg18
F8.169219547775347
ssI88
(dp106
g2
F420636.0
sg3
F905.0
sg4
F505050.0
sg5
F1750000.0
sg6
F4.640883977900553
sg7
F22542539.0
sg8
F46950.0
sg9
F19794175.0
sg10
F18.0
sg11
F174839.0
sg12
F4.0
sg13
I01
sg14
F864.0
sg15
F2748364.0
sg16
F42.0
sg17
F22.22222222222222
sg18
F4.9837486457204765
ssI89
(dp107
g2
F275101.0
sg3
F4607.0
sg4
F1086821.0
sg5
F400000.0
sg6
F0.8899500759713479
sg7
F976037.0
sg8
F83585.0
sg9
F850010.0
sg10
F14368.0
sg11
F4669.0
sg12
F171.0
sg13
I00
sg14
F583.0
sg15
F126027.0
sg16
F41.0
sg17
F1.1901447661469933
sg18
F1.1172595520421607
ssI90
(dp108
g2
F0.0
sg3
F0.0
sg4
F0.0
sg5
F0.0
sg6
F0.0
sg7
F0.0
sg8
F0.0
sg9
F0.0
sg10
F0.0
sg11
F0.0
sg12
F0.0
sg13
I00
sg14
F0.0
sg15
F0.0
sg16
F0.0
sg17
F0.0
sg18
F0.0
ssI91
(dp109
g2
F314288.0
sg3
F102.0
sg4
F1101393.0
sg5
F800000.0
sg6
F0.0
sg7
F495633.0
sg8
F27861.0
sg9
F117551.0
sg10
F33.0
sg11
F494.0
sg12
F4.0
sg13
I00
sg14
F71.0
sg15
F378082.0
sg16
F0.0
sg17
F12.121212121212121
sg18
F2.9629629629629632
ssI92
(dp110
g2
F94941.0
sg3
F0.0
sg4
F249787.0
sg5
F0.0
sg6
F0.0
sg7
F7307594.0
sg8
F18834.0
sg9
F5266578.0
sg10
F0.0
sg11
F176.0
sg12
F0.0
sg13
I00
sg14
F0.0
sg15
F2041016.0
sg16
F0.0
sg17
F0.0
sg18
F0.0
ssI93
(dp111
g2
F0.0
sg3
F0.0
sg4
F27942.0
sg5
F0.0
sg6
F0.0
sg7
F0.0
sg8
F27942.0
sg9
F0.0
sg10
F0.0
sg11
F0.0
sg12
F0.0
sg13
I00
sg14
F0.0
sg15
F0.0
sg16
F0.0
sg17
F0.0
sg18
F0.0
ssI94
(dp112
g2
F239502.0
sg3
F0.0
sg4
F1112087.0
sg5
F500000.0
sg6
F0.0
sg7
F511734.0
sg8
F16514.0
sg9
F0.0
sg10
F0.0
sg11
F356071.0
sg12
F0.0
sg13
I00
sg14
F0.0
sg15
F511734.0
sg16
F0.0
sg17
F0.0
sg18
F0.0
ssI95
(dp113
g2
F1111258.0
sg3
F3627.0
sg4
F8682716.0
sg5
F5600000.0
sg6
F2.42624758753791
sg7
F26093672.0
sg8
F29336.0
sg9
F19250000.0
sg10
F108.0
sg11
F22122.0
sg12
F30.0
sg13
I01
sg14
F2042.0
sg15
F6843672.0
sg16
F88.0
sg17
F27.77777777777778
sg18
F3.1593038821954487
ssI96
(dp114
g2
F0.0
sg3
F0.0
sg4
F1279.0
sg5
F0.0
sg6
F0.0
sg7
F0.0
sg8
F1279.0
sg9
F0.0
sg10
F0.0
sg11
F0.0
sg12
F0.0
sg13
I00
sg14
F0.0
sg15
F0.0
sg16
F0.0
sg17
F0.0
sg18
F0.0
ssI97
(dp115
g2
F0.0
sg3
F613.0
sg4
F0.0
sg5
F0.0
sg6
F6.36215334420881
sg7
F1832468.0
sg8
F0.0
sg9
F1426469.0
sg10
F25.0
sg11
F0.0
sg12
F18.0
sg13
I00
sg14
F583.0
sg15
F405999.0
sg16
F39.0
sg17
F72.0
sg18
F8.934169278996865
ssI98
(dp116
g2
F0.0
sg3
F0.0
sg4
F564348.0
sg5
F0.0
sg6
F0.0
sg7
F1095040.0
sg8
F0.0
sg9
F886231.0
sg10
F0.0
sg11
F0.0
sg12
F0.0
sg13
I00
sg14
F0.0
sg15
F208809.0
sg16
F0.0
sg17
F0.0
sg18
F0.0
ssI99
(dp117
g2
F6615.0
sg3
F0.0
sg4
F1146658.0
sg5
F0.0
sg6
F0.0
sg7
F0.0
sg8
F0.0
sg9
F0.0
sg10
F0.0
sg11
F680833.0
sg12
F0.0
sg13
I00
sg14
F0.0
sg15
F0.0
sg16
F0.0
sg17
F0.0
sg18
F0.0
ssI100
(dp118
g2
F655037.0
sg3
F898.0
sg4
F1386690.0
sg5
F300000.0
sg6
F0.779510022271715
sg7
F28798.0
sg8
F31653.0
sg9
F28798.0
sg10
F67.0
sg11
F0.0
sg12
F0.0
sg13
I00
sg14
F728.0
sg15
F0.0
sg16
F7.0
sg17
F0.0
sg18
F0.7253886010362695
ssI101
(dp119
g2
F0.0
sg3
F0.0
sg4
F362096.0
sg5
F0.0
sg6
F0.0
sg7
F0.0
sg8
F0.0
sg9
F0.0
sg10
F0.0
sg11
F362096.0
sg12
F0.0
sg13
I00
sg14
F0.0
sg15
F0.0
sg16
F0.0
sg17
F0.0
sg18
F0.0
ssI102
(dp120
g2
F0.0
sg3
F0.0
sg4
F774401.0
sg5
F0.0
sg6
F0.0
sg7
F368705.0
sg8
F0.0
sg9
F0.0
sg10
F0.0
sg11
F0.0
sg12
F0.0
sg13
I00
sg14
F0.0
sg15
F463261.0
sg16
F0.0
sg17
F0.0
sg18
F0.0
ssI103
(dp121
g2
F404338.0
sg3
F12754.0
sg4
F1747522.0
sg5
F1000000.0
sg6
F1.0976948408342482
sg7
F6153642.0
sg8
F41953.0
sg9
F2022048.0
sg10
F6759.0
sg11
F1231.0
sg12
F387.0
sg13
I00
sg14
F3639.0
sg15
F4131594.0
sg16
F140.0
sg17
F5.725699067909454
sg18
F2.700763593501768
ssI104
(dp122
g2
F26704229.0
sg3
F0.0
sg4
F309886585.0
sg5
F97343619.0
sg6
F0.0
sg7
F434509511.0
sg8
F5235198.0
sg9
F311764000.0
sg10
F0.0
sg11
F42667589.0
sg12
F0.0
sg13
I00
sg14
F0.0
sg15
F130322299.0
sg16
F0.0
sg17
F0.0
sg18
F0.0
ssI105
(dp123
g2
F0.0
sg3
F517.0
sg4
F0.0
sg5
F0.0
sg6
F0.0
sg7
F1884748.0
sg8
F0.0
sg9
F1324578.0
sg10
F36.0
sg11
F0.0
sg12
F0.0
sg13
I00
sg14
F10.0
sg15
F560170.0
sg16
F0.0
sg17
F0.0
sg18
F0.0
ssI106
(dp124
g2
F259996.0
sg3
F400.0
sg4
F1034395.0
sg5
F325000.0
sg6
F5.5
sg7
F2056427.0
sg8
F0.0
sg9
F1668260.0
sg10
F30.0
sg11
F1425.0
sg12
F7.0
sg13
I00
sg14
F337.0
sg15
F388167.0
sg16
F22.0
sg17
F23.333333333333332
sg18
F6.744186046511628
ssI107
(dp125
g2
F317543.0
sg3
F0.0
sg4
F1934359.0
sg5
F450000.0
sg6
F0.0
sg7
F15144123.0
sg8
F81353.0
sg9
F1297049.0
sg10
F0.0
sg11
F1085463.0
sg12
F0.0
sg13
I00
sg14
F0.0
sg15
F13847074.0
sg16
F0.0
sg17
F0.0
sg18
F0.0
ssI108
(dp126
g2
F0.0
sg3
F0.0
sg4
F0.0
sg5
F0.0
sg6
F0.0
sg7
F6077885.0
sg8
F0.0
sg9
F5127155.0
sg10
F0.0
sg11
F0.0
sg12
F0.0
sg13
I00
sg14
F0.0
sg15
F950730.0
sg16
F0.0
sg17
F0.0
sg18
F0.0
ssI109
(dp127
g2
F201955.0
sg3
F2902.0
sg4
F4484442.0
sg5
F4175000.0
sg6
F1.6195727084769125
sg7
F1729541.0
sg8
F13868.0
sg9
F1729541.0
sg10
F2195.0
sg11
F152.0
sg12
F65.0
sg13
I00
sg14
F1407.0
sg15
F126027.0
sg16
F47.0
sg17
F2.9612756264236904
sg18
F2.1973710025505198
ssI110
(dp128
g2
F248146.0
sg3
F3136.0
sg4
F1576511.0
sg5
F600000.0
sg6
F0.7653061224489796
sg7
F494136.0
sg8
F116337.0
sg9
F281073.0
sg10
F136.0
sg11
F2401.0
sg12
F6.0
sg13
I00
sg14
F2477.0
sg15
F213063.0
sg16
F24.0
sg17
F4.411764705882353
sg18
F0.9168704156479218
ssI111
(dp129
g2
F0.0
sg3
F0.0
sg4
F83750.0
sg5
F0.0
sg6
F0.0
sg7
F431750.0
sg8
F0.0
sg9
F431750.0
sg10
F0.0
sg11
F0.0
sg12
F0.0
sg13
I00
sg14
F0.0
sg15
F44093.0
sg16
F0.0
sg17
F0.0
sg18
F0.0
ssI112
(dp130
g2
F0.0
sg3
F0.0
sg4
F84992.0
sg5
F0.0
sg6
F0.0
sg7
F0.0
sg8
F1413.0
sg9
F0.0
sg10
F0.0
sg11
F0.0
sg12
F0.0
sg13
I00
sg14
F0.0
sg15
F0.0
sg16
F0.0
sg17
F0.0
sg18
F0.0
ssI113
(dp131
g2
F0.0
sg3
F1486.0
sg4
F49288.0
sg5
F0.0
sg6
F0.8748317631224763
sg7
F0.0
sg8
F49288.0
sg9
F0.0
sg10
F41.0
sg11
F0.0
sg12
F1.0
sg13
I00
sg14
F761.0
sg15
F0.0
sg16
F13.0
sg17
F2.4390243902439024
sg18
F0.9168303863785201
ssI114
(dp132
g2
F0.0
sg3
F0.0
sg4
F182466.0
sg5
F0.0
sg6
F0.0
sg7
F257817.0
sg8
F3486.0
sg9
F257817.0
sg10
F0.0
sg11
F0.0
sg12
F0.0
sg13
I00
sg14
F0.0
sg15
F0.0
sg16
F0.0
sg17
F0.0
sg18
F0.0
ssI115
(dp133
g2
F0.0
sg3
F719.0
sg4
F0.0
sg5
F0.0
sg6
F4.867872044506258
sg7
F1118394.0
sg8
F0.0
sg9
F754966.0
sg10
F34.0
sg11
F0.0
sg12
F5.0
sg13
I00
sg14
F589.0
sg15
F363428.0
sg16
F35.0
sg17
F14.705882352941178
sg18
F5.3120849933598935
ssI116
(dp134
g2
F76399.0
sg3
F0.0
sg4
F394475.0
sg5
F100000.0
sg6
F0.0
sg7
F4221891.0
sg8
F8409.0
sg9
F4160672.0
sg10
F0.0
sg11
F202052.0
sg12
F0.0
sg13
I00
sg14
F0.0
sg15
F201483.0
sg16
F0.0
sg17
F0.0
sg18
F0.0
ssI117
(dp135
g2
F262788.0
sg3
F0.0
sg4
F2368151.0
sg5
F1000000.0
sg6
F0.0
sg7
F8317782.0
sg8
F35812.0
sg9
F8191755.0
sg10
F0.0
sg11
F374689.0
sg12
F0.0
sg13
I00
sg14
F0.0
sg15
F126027.0
sg16
F0.0
sg17
F0.0
sg18
F0.0
ssI118
(dp136
g2
F0.0
sg3
F523.0
sg4
F15456290.0
sg5
F0.0
sg6
F0.0
sg7
F0.0
sg8
F0.0
sg9
F2604490.0
sg10
F29.0
sg11
F137864.0
sg12
F1.0
sg13
I00
sg14
F463.0
sg15
F-2604490.0
sg16
F0.0
sg17
F3.4482758620689653
sg18
F0.18115942028985507
ssI119
(dp137
g2
F261809.0
sg3
F312.0
sg4
F477557.0
sg5
F300000.0
sg6
F9.294871794871796
sg7
F0.0
sg8
F0.0
sg9
F0.0
sg10
F15.0
sg11
F540.0
sg12
F7.0
sg13
I00
sg14
F196.0
sg15
F307301.0
sg16
F29.0
sg17
F46.666666666666664
sg18
F11.009174311926607
ssI120
(dp138
g2
F248017.0
sg3
F1088.0
sg4
F1054637.0
sg5
F500000.0
sg6
F0.0
sg7
F1014505.0
sg8
F600.0
sg9
F825464.0
sg10
F125.0
sg11
F1215.0
sg12
F0.0
sg13
I00
sg14
F23.0
sg15
F189041.0
sg16
F0.0
sg17
F0.0
sg18
F0.0
ssI121
(dp139
g2
F0.0
sg3
F0.0
sg4
F55097.0
sg5
F0.0
sg6
F0.0
sg7
F192758.0
sg8
F55097.0
sg9
F192758.0
sg10
F0.0
sg11
F0.0
sg12
F0.0
sg13
I00
sg14
F0.0
sg15
F0.0
sg16
F0.0
sg17
F0.0
sg18
F0.0
ssI122
(dp140
g2
F229284.0
sg3
F2192.0
sg4
F812194.0
sg5
F400000.0
sg6
F0.5018248175182481
sg7
F597461.0
sg8
F57580.0
sg9
F400478.0
sg10
F45.0
sg11
F330.0
sg12
F2.0
sg13
I00
sg14
F395.0
sg15
F196983.0
sg16
F11.0
sg17
F4.444444444444445
sg18
F0.581135449262405
ssI123
(dp141
g2
F231946.0
sg3
F209.0
sg4
F1566469.0
sg5
F850000.0
sg6
F4.784688995215311
sg7
F896153.0
sg8
F48405.0
sg9
F636246.0
sg10
F44.0
sg11
F60814.0
sg12
F27.0
sg13
I00
sg14
F178.0
sg15
F259907.0
sg16
F10.0
sg17
F61.36363636363637
sg18
F14.624505928853754
ssI124
(dp142
g2
F221003.0
sg3
F176.0
sg4
F319941.0
sg5
F70000.0
sg6
F5.681818181818182
sg7
F0.0
sg8
F28164.0
sg9
F0.0
sg10
F14.0
sg11
F774.0
sg12
F3.0
sg13
I00
sg14
F114.0
sg15
F0.0
sg16
F10.0
sg17
F21.428571428571427
sg18
F6.842105263157896
ssI125
(dp143
g2
F158403.0
sg3
F0.0
sg4
F360300.0
sg5
F0.0
sg6
F0.0
sg7
F11884758.0
sg8
F53947.0
sg9
F8308552.0
sg10
F0.0
sg11
F147950.0
sg12
F0.0
sg13
I01
sg14
F0.0
sg15
F3576206.0
sg16
F0.0
sg17
F0.0
sg18
F0.0
ssI126
(dp144
g2
F0.0
sg3
F0.0
sg4
F91093.0
sg5
F0.0
sg6
F0.0
sg7
F30766064.0
sg8
F77978.0
sg9
F30766064.0
sg10
F0.0
sg11
F2856.0
sg12
F0.0
sg13
I01
sg14
F0.0
sg15
F0.0
sg16
F0.0
sg17
F0.0
sg18
F0.0
ssI127
(dp145
g2
F250100.0
sg3
F2572.0
sg4
F1410464.0
sg5
F600000.0
sg6
F11.858475894245723
sg7
F1865087.0
sg8
F3475.0
sg9
F1550019.0
sg10
F63.0
sg11
F473.0
sg12
F14.0
sg13
I00
sg14
F1902.0
sg15
F315068.0
sg16
F305.0
sg17
F22.22222222222222
sg18
F12.106261859582542
ssI128
(dp146
g2
F492375.0
sg3
F2181.0
sg4
F550981.0
sg5
F800000.0
sg6
F2.9344337459880787
sg7
F8831913.0
sg8
F51124.0
sg9
F8831913.0
sg10
F909.0
sg11
F7482.0
sg12
F20.0
sg13
I00
sg14
F1401.0
sg15
F1787380.0
sg16
F64.0
sg17
F2.2002200220022003
sg18
F2.7184466019417477
ssI129
(dp147
g2
F1060932.0
sg3
F3275.0
sg4
F17252530.0
sg5
F2000000.0
sg6
F7.3893129770992365
sg7
F14622185.0
sg8
F86987.0
sg9
F10433518.0
sg10
F21.0
sg11
F7427621.0
sg12
F6.0
sg13
I00
sg14
F2979.0
sg15
F4188667.0
sg16
F242.0
sg17
F28.57142857142857
sg18
F7.524271844660194
ssI130
(dp148
g2
F261879.0
sg3
F0.0
sg4
F3123383.0
sg5
F1000000.0
sg6
F0.0
sg7
F23817930.0
sg8
F32047.0
sg9
F15364167.0
sg10
F0.0
sg11
F1829457.0
sg12
F0.0
sg13
I00
sg14
F0.0
sg15
F8453763.0
sg16
F0.0
sg17
F0.0
sg18
F0.0
ssI131
(dp149
g2
F239671.0
sg3
F0.0
sg4
F827696.0
sg5
F400000.0
sg6
F0.0
sg7
F63014.0
sg8
F129142.0
sg9
F0.0
sg10
F0.0
sg11
F69.0
sg12
F0.0
sg13
I00
sg14
F0.0
sg15
F145796.0
sg16
F0.0
sg17
F0.0
sg18
F0.0
ssI132
(dp150
g2
F0.0
sg3
F2649.0
sg4
F0.0
sg5
F0.0
sg6
F1.3212533031332578
sg7
F346663.0
sg8
F0.0
sg9
F0.0
sg10
F1061.0
sg11
F0.0
sg12
F38.0
sg13
I00
sg14
F571.0
sg15
F346663.0
sg16
F35.0
sg17
F3.581526861451461
sg18
F1.9676549865229112
ssI133
(dp151
g2
F0.0
sg3
F0.0
sg4
F50591.0
sg5
F0.0
sg6
F0.0
sg7
F176378.0
sg8
F0.0
sg9
F176378.0
sg10
F0.0
sg11
F0.0
sg12
F0.0
sg13
I00
sg14
F0.0
sg15
F0.0
sg16
F0.0
sg17
F0.0
sg18
F0.0
ssI134
(dp152
g2
F304588.0
sg3
F1755.0
sg4
F3676340.0
sg5
F2500000.0
sg6
F2.3931623931623935
sg7
F2332399.0
sg8
F95924.0
sg9
F940257.0
sg10
F75.0
sg11
F401481.0
sg12
F37.0
sg13
I00
sg14
F1604.0
sg15
F1392142.0
sg16
F42.0
sg17
F49.333333333333336
sg18
F4.316939890710382
ssI135
(dp153
g2
F309946.0
sg3
F2374.0
sg4
F1587421.0
sg5
F700000.0
sg6
F2.232518955349621
sg7
F1920055.0
sg8
F127017.0
sg9
F671737.0
sg10
F61.0
sg11
F150458.0
sg12
F15.0
sg13
I01
sg14
F2271.0
sg15
F1248318.0
sg16
F53.0
sg17
F24.59016393442623
sg18
F2.792607802874743
ssI136
(dp154
g2
F0.0
sg3
F0.0
sg4
F3750.0
sg5
F0.0
sg6
F0.0
sg7
F0.0
sg8
F0.0
sg9
F0.0
sg10
F0.0
sg11
F0.0
sg12
F0.0
sg13
I00
sg14
F0.0
sg15
F0.0
sg16
F0.0
sg17
F0.0
sg18
F0.0
ssI137
(dp155
g2
F85274.0
sg3
F496.0
sg4
F1979596.0
sg5
F0.0
sg6
F5.64516129032258
sg7
F5819980.0
sg8
F28093.0
sg9
F2165172.0
sg10
F19.0
sg11
F1553729.0
sg12
F5.0
sg13
I00
sg14
F437.0
sg15
F3654808.0
sg16
F28.0
sg17
F26.31578947368421
sg18
F6.407766990291262
ssI138
(dp156
g2
F247338.0
sg3
F460.0
sg4
F399393.0
sg5
F300000.0
sg6
F2.1739130434782608
sg7
F1168042.0
sg8
F0.0
sg9
F591250.0
sg10
F19.0
sg11
F152055.0
sg12
F11.0
sg13
I00
sg14
F379.0
sg15
F576792.0
sg16
F10.0
sg17
F57.89473684210527
sg18
F4.3841336116910234
ssI139
(dp157
g2
F349487.0
sg3
F1522.0
sg4
F8407016.0
sg5
F0.0
sg6
F0.5256241787122208
sg7
F2070306.0
sg8
F8211.0
sg9
F2070306.0
sg10
F230.0
sg11
F2818454.0
sg12
F0.0
sg13
I00
sg14
F477.0
sg15
F0.0
sg16
F8.0
sg17
F0.0
sg18
F0.45662100456621
ssI140
(dp158
g2
F330546.0
sg3
F3523.0
sg4
F2355702.0
sg5
F900000.0
sg6
F4.428044280442804
sg7
F3444470.0
sg8
F0.0
sg9
F2542813.0
sg10
F1053.0
sg11
F400572.0
sg12
F71.0
sg13
I00
sg14
F2333.0
sg15
F901657.0
sg16
F156.0
sg17
F6.7426400759734095
sg18
F4.960664335664336
ssI141
(dp159
g2
F0.0
sg3
F0.0
sg4
F119292.0
sg5
F0.0
sg6
F0.0
sg7
F0.0
sg8
F0.0
sg9
F0.0
sg10
F0.0
sg11
F0.0
sg12
F0.0
sg13
I00
sg14
F0.0
sg15
F0.0
sg16
F0.0
sg17
F0.0
sg18
F0.0
ssI142
(dp160
g2
F415189.0
sg3
F1892.0
sg4
F1868758.0
sg5
F1000000.0
sg6
F3.06553911205074
sg7
F2502063.0
sg8
F30674.0
sg9
F0.0
sg10
F49.0
sg11
F307895.0
sg12
F12.0
sg13
I01
sg14
F1585.0
sg15
F2502063.0
sg16
F58.0
sg17
F24.489795918367346
sg18
F3.6063884595569293
ssI143
(dp161
g2
F265214.0
sg3
F533.0
sg4
F1092663.0
sg5
F600000.0
sg6
F0.0
sg7
F3745048.0
sg8
F0.0
sg9
F3181250.0
sg10
F29.0
sg11
F0.0
sg12
F0.0
sg13
I00
sg14
F300.0
sg15
F563798.0
sg16
F0.0
sg17
F0.0
sg18
F0.0
ssI144
(dp162
g2
F278601.0
sg3
F865.0
sg4
F875760.0
sg5
F800000.0
sg6
F21.734104046242773
sg7
F1080988.0
sg8
F96268.0
sg9
F765920.0
sg10
F22.0
sg11
F891.0
sg12
F11.0
sg13
I00
sg14
F772.0
sg15
F315068.0
sg16
F188.0
sg17
F50.0
sg18
F22.435174746335964
ssI145
(dp163
g2
F274975.0
sg3
F873.0
sg4
F1272284.0
sg5
F600000.0
sg6
F5.956471935853378
sg7
F778546.0
sg8
F125978.0
sg9
F384728.0
sg10
F16.0
sg11
F200308.0
sg12
F6.0
sg13
I01
sg14
F874.0
sg15
F393818.0
sg16
F52.0
sg17
F37.5
sg18
F6.524184476940382
ss.